; Function Attrs: nounwind uwtable
define i32 @pmix20_bfrop_pack_buffer(ptr noundef %0, ptr noundef %1, ptr noundef %2, i32 noundef %3, i16 noundef zeroext %4) local_unnamed_addr #0 {
  %6 = load i32, ptr getelementptr inbounds nuw (i8, ptr @pmix_bfrops_base_framework, i64 76), align 4, !tbaa !14
  %or.cond = icmp ult i32 %6, 64
  br i1 %or.cond, label %7, label %15

7:                                                ; preds = %5
  %8 = zext nneg i32 %6 to i64
  %9 = getelementptr inbounds nuw [0 x %struct.pmix_output_desc_t], ptr @pmix_output_info, i64 0, i64 %8, i32 2
  %10 = load i32, ptr %9, align 4, !tbaa !20
  %11 = icmp sgt i32 %10, 19
  br i1 %11, label %12, label %15

12:                                               ; preds = %7
  %13 = sext i32 %3 to i64
  %14 = zext i16 %4 to i32
  tail call void (i32, ptr, ...) @pmix_output(i32 noundef %6, ptr noundef nonnull @.str, ptr noundef %1, ptr noundef %2, i64 noundef %13, i32 noundef %14) #8
  br label %15

15:                                               ; preds = %12, %7, %5
  %cond = icmp eq i16 %4, 34
  %. = select i1 %cond, i16 14, i16 %4
  %16 = getelementptr inbounds nuw i8, ptr %1, i64 120
  %17 = load i8, ptr %16, align 8, !tbaa !3
  %18 = icmp eq i8 %17, 2
  br i1 %18, label %19, label %21

19:                                               ; preds = %15
  %20 = tail call i32 @pmix20_bfrop_store_data_type(ptr noundef %0, ptr noundef nonnull %1, i16 noundef zeroext %.) #8
  %.not = icmp eq i32 %20, 0
  br i1 %.not, label %21, label %pmix_pointer_array_get_item.exit.thread

21:                                               ; preds = %19, %15
  %22 = zext i16 %. to i32
  %23 = load i32, ptr getelementptr inbounds nuw (i8, ptr @pmix_mca_bfrops_v20_component, i64 360), align 8, !tbaa !25
  %.not.i = icmp sgt i32 %23, %22
  br i1 %.not.i, label %pmix_pointer_array_get_item.exit, label %pmix_pointer_array_get_item.exit.thread, !prof !28

pmix_pointer_array_get_item.exit:                 ; preds = %21
  %24 = load ptr, ptr getelementptr inbounds nuw (i8, ptr @pmix_mca_bfrops_v20_component, i64 384), align 8, !tbaa !29
  %25 = zext i16 %. to i64
  %26 = getelementptr inbounds nuw ptr, ptr %24, i64 %25
  %27 = load ptr, ptr %26, align 8, !tbaa !30
  %28 = icmp eq ptr %27, null
  br i1 %28, label %pmix_pointer_array_get_item.exit.thread, label %29

29:                                               ; preds = %pmix_pointer_array_get_item.exit
  %30 = getelementptr inbounds nuw i8, ptr %27, i64 136
  %31 = load ptr, ptr %30, align 8, !tbaa !31
  %32 = tail call i32 %31(ptr noundef %0, ptr noundef nonnull %1, ptr noundef %2, i32 noundef %3, i16 noundef zeroext %.) #8
  br label %pmix_pointer_array_get_item.exit.thread

pmix_pointer_array_get_item.exit.thread:          ; preds = %21, %pmix_pointer_array_get_item.exit, %19, %29
  %.0 = phi i32 [ %32, %29 ], [ %20, %19 ], [ -21, %pmix_pointer_array_get_item.exit ], [ -21, %21 ]
  ret i32 %.0
}